target datalayout = "e-m:e-p270:32:32-p271:32:32-p272:64:64-i64:64-i128:128-f80:128-n8:16:32:64-S128"
target triple = "x86_64-pc-linux-gnu"

@process_netbios_name.hex_digits = internal constant [16 x i8] c"0123456789abcdef", align 16

; Function Attrs: nounwind uwtable
define hidden i32 @process_netbios_name(ptr noundef %0, ptr noundef %1, i32 noundef %2) #0 {
  %4 = alloca ptr, align 8
  %5 = alloca ptr, align 8
  %6 = alloca i32, align 4
  %7 = alloca i32, align 4
  %8 = alloca i32, align 4
  %9 = alloca i8, align 1
  %10 = alloca ptr, align 8
  store ptr %0, ptr %4, align 8
  store ptr %1, ptr %5, align 8
  store i32 %2, ptr %6, align 4
  %11 = load ptr, ptr %4, align 8
  %12 = getelementptr i8, ptr %11, i64 16
  %13 = getelementptr i8, ptr %12, i64 -1
  %14 = load i8, ptr %13, align 1
  %15 = zext i8 %14 to i32
  store i32 %15, ptr %8, align 4
  %16 = load ptr, ptr %5, align 8
  store ptr %16, ptr %10, align 8
  store i32 0, ptr %7, align 4
  br label %17

17:                                               ; preds = %82, %3
  %18 = load i32, ptr %7, align 4
  %19 = icmp slt i32 %18, 15
  br i1 %19, label %20, label %85

20:                                               ; preds = %17
  %21 = load ptr, ptr %4, align 8
  %22 = getelementptr i8, ptr %21, i32 1
  store ptr %22, ptr %4, align 8
  %23 = load i8, ptr %21, align 1
  store i8 %23, ptr %9, align 1
  %24 = load i8, ptr %9, align 1
  %25 = zext i8 %24 to i32
  %26 = icmp sge i32 %25, 32
  br i1 %26, label %27, label %40

27:                                               ; preds = %20
  %28 = load i8, ptr %9, align 1
  %29 = zext i8 %28 to i32
  %30 = icmp sle i32 %29, 126
  br i1 %30, label %31, label %40

31:                                               ; preds = %27
  %32 = load i32, ptr %6, align 4
  %33 = add i32 %32, -1
  store i32 %33, ptr %6, align 4
  %34 = icmp sgt i32 %33, 0
  br i1 %34, label %35, label %39

35:                                               ; preds = %31
  %36 = load i8, ptr %9, align 1
  %37 = load ptr, ptr %5, align 8
  %38 = getelementptr i8, ptr %37, i32 1
  store ptr %38, ptr %5, align 8
  store i8 %36, ptr %37, align 1
  br label %39

39:                                               ; preds = %35, %31
  br label %81

40:                                               ; preds = %27, %20
  %41 = load i32, ptr %6, align 4
  %42 = add i32 %41, -1
  store i32 %42, ptr %6, align 4
  %43 = icmp sgt i32 %42, 0
  br i1 %43, label %44, label %47

44:                                               ; preds = %40
  %45 = load ptr, ptr %5, align 8
  %46 = getelementptr i8, ptr %45, i32 1
  store ptr %46, ptr %5, align 8
  store i8 60, ptr %45, align 1
  br label %47

47:                                               ; preds = %44, %40
  %48 = load i32, ptr %6, align 4
  %49 = add i32 %48, -1
  store i32 %49, ptr %6, align 4
  %50 = icmp sgt i32 %49, 0
  br i1 %50, label %51, label %60

51:                                               ; preds = %47
  %52 = load i8, ptr %9, align 1
  %53 = zext i8 %52 to i32
  %54 = ashr i32 %53, 4
  %55 = sext i32 %54 to i64
  %56 = getelementptr [16 x i8], ptr @process_netbios_name.hex_digits, i64 0, i64 %55
  %57 = load i8, ptr %56, align 1
  %58 = load ptr, ptr %5, align 8
  %59 = getelementptr i8, ptr %58, i32 1
  store ptr %59, ptr %5, align 8
  store i8 %57, ptr %58, align 1
  br label %60

60:                                               ; preds = %51, %47
  %61 = load i32, ptr %6, align 4
  %62 = add i32 %61, -1
  store i32 %62, ptr %6, align 4
  %63 = icmp sgt i32 %62, 0
  br i1 %63, label %64, label %73

64:                                               ; preds = %60
  %65 = load i8, ptr %9, align 1
  %66 = zext i8 %65 to i32
  %67 = and i32 %66, 15
  %68 = sext i32 %67 to i64
  %69 = getelementptr [16 x i8], ptr @process_netbios_name.hex_digits, i64 0, i64 %68
  %70 = load i8, ptr %69, align 1
  %71 = load ptr, ptr %5, align 8
  %72 = getelementptr i8, ptr %71, i32 1
  store ptr %72, ptr %5, align 8
  store i8 %70, ptr %71, align 1
  br label %73

73:                                               ; preds = %64, %60
  %74 = load i32, ptr %6, align 4
  %75 = add i32 %74, -1
  store i32 %75, ptr %6, align 4
  %76 = icmp sgt i32 %75, 0
  br i1 %76, label %77, label %80

77:                                               ; preds = %73
  %78 = load ptr, ptr %5, align 8
  %79 = getelementptr i8, ptr %78, i32 1
  store ptr %79, ptr %5, align 8
  store i8 62, ptr %78, align 1
  br label %80

80:                                               ; preds = %77, %73
  br label %81

81:                                               ; preds = %80, %39
  br label %82

82:                                               ; preds = %81
  %83 = load i32, ptr %7, align 4
  %84 = add i32 %83, 1
  store i32 %84, ptr %7, align 4
  br label %17, !llvm.loop !4

85:                                               ; preds = %17
  %86 = load ptr, ptr %5, align 8
  store i8 0, ptr %86, align 1
  %87 = load ptr, ptr %5, align 8
  %88 = getelementptr i8, ptr %87, i32 -1
  store ptr %88, ptr %5, align 8
  br label %89

89:                                               ; preds = %101, %85
  %90 = load ptr, ptr %5, align 8
  %91 = load ptr, ptr %10, align 8
  %92 = icmp uge ptr %90, %91
  br i1 %92, label %93, label %104

93:                                               ; preds = %89
  %94 = load ptr, ptr %5, align 8
  %95 = load i8, ptr %94, align 1
  %96 = sext i8 %95 to i32
  %97 = icmp ne i32 %96, 32
  br i1 %97, label %98, label %101

98:                                               ; preds = %93
  %99 = load ptr, ptr %5, align 8
  %100 = getelementptr i8, ptr %99, i64 1
  store i8 0, ptr %100, align 1
  br label %104

101:                                              ; preds = %93
  %102 = load ptr, ptr %5, align 8
  %103 = getelementptr i8, ptr %102, i32 -1
  store ptr %103, ptr %5, align 8
  br label %89, !llvm.loop !6

104:                                              ; preds = %98, %89
  %105 = load i32, ptr %8, align 4
  ret i32 %105
}

; Function Attrs: nounwind uwtable
define hidden i32 @get_netbios_name(ptr noundef %0, i32 noundef %1, ptr noundef %2, i32 noundef %3) #0 {
  %5 = alloca ptr, align 8
  %6 = alloca i32, align 4
  %7 = alloca ptr, align 8
  %8 = alloca i32, align 4
  store ptr %0, ptr %5, align 8
  store i32 %1, ptr %6, align 4
  store ptr %2, ptr %7, align 8
  store i32 %3, ptr %8, align 4
  %9 = load ptr, ptr %5, align 8
  %10 = load i32, ptr %6, align 4
  %11 = call ptr @tvb_get_ptr(ptr noundef %9, i32 noundef %10, i32 noundef 16)
  %12 = load ptr, ptr %7, align 8
  %13 = load i32, ptr %8, align 4
  %14 = call i32 @process_netbios_name(ptr noundef %11, ptr noundef %12, i32 noundef %13)
  ret i32 %14
}