; Function Attrs: nounwind uwtable
define hidden range(i32 0, 256) i32 @get_netbios_name(ptr noundef %0, i32 noundef %1, ptr noundef %2, i32 noundef %3) local_unnamed_addr #1 {
  %5 = tail call ptr @tvb_get_ptr(ptr noundef %0, i32 noundef %1, i32 noundef 16) #6
  %6 = getelementptr i8, ptr %5, i64 15
  %7 = load i8, ptr %6, align 1
  br label %8

8:                                                ; preds = %44, %4
  %.042.i = phi ptr [ %5, %4 ], [ %9, %44 ]
  %.02941.i = phi ptr [ %2, %4 ], [ %.4.i, %44 ]
  %.03040.i = phi i32 [ %3, %4 ], [ %.131.i, %44 ]
  %.03239.i = phi i32 [ 0, %4 ], [ %45, %44 ]
  %9 = getelementptr i8, ptr %.042.i, i64 1
  %10 = load i8, ptr %.042.i, align 1
  %11 = zext i8 %10 to i32
  %12 = add i8 %10, -32
  %or.cond.i = icmp ult i8 %12, 95
  %13 = add i32 %.03040.i, -1
  %14 = icmp sgt i32 %13, 0
  br i1 %or.cond.i, label %15, label %18

15:                                               ; preds = %8
  br i1 %14, label %16, label %44

16:                                               ; preds = %15
  %17 = getelementptr i8, ptr %.02941.i, i64 1
  store i8 %10, ptr %.02941.i, align 1
  br label %44

18:                                               ; preds = %8
  br i1 %14, label %19, label %21

19:                                               ; preds = %18
  %20 = getelementptr i8, ptr %.02941.i, i64 1
  store i8 60, ptr %.02941.i, align 1
  br label %21

21:                                               ; preds = %19, %18
  %.1.i = phi ptr [ %20, %19 ], [ %.02941.i, %18 ]
  %22 = add i32 %.03040.i, -2
  %23 = icmp sgt i32 %22, 0
  br i1 %23, label %24, label %30

24:                                               ; preds = %21
  %25 = lshr i32 %11, 4
  %26 = zext nneg i32 %25 to i64
  %27 = getelementptr [16 x i8], ptr @process_netbios_name.hex_digits, i64 0, i64 %26
  %28 = load i8, ptr %27, align 1
  %29 = getelementptr i8, ptr %.1.i, i64 1
  store i8 %28, ptr %.1.i, align 1
  br label %30

30:                                               ; preds = %24, %21
  %.2.i = phi ptr [ %29, %24 ], [ %.1.i, %21 ]
  %31 = add i32 %.03040.i, -3
  %32 = icmp sgt i32 %31, 0
  br i1 %32, label %33, label %39

33:                                               ; preds = %30
  %34 = and i32 %11, 15
  %35 = zext nneg i32 %34 to i64
  %36 = getelementptr [16 x i8], ptr @process_netbios_name.hex_digits, i64 0, i64 %35
  %37 = load i8, ptr %36, align 1
  %38 = getelementptr i8, ptr %.2.i, i64 1
  store i8 %37, ptr %.2.i, align 1
  br label %39

39:                                               ; preds = %33, %30
  %.3.i = phi ptr [ %38, %33 ], [ %.2.i, %30 ]
  %40 = add i32 %.03040.i, -4
  %41 = icmp sgt i32 %40, 0
  br i1 %41, label %42, label %44

42:                                               ; preds = %39
  %43 = getelementptr i8, ptr %.3.i, i64 1
  store i8 62, ptr %.3.i, align 1
  br label %44

44:                                               ; preds = %42, %39, %16, %15
  %.131.i = phi i32 [ %13, %16 ], [ %13, %15 ], [ %40, %42 ], [ %40, %39 ]
  %.4.i = phi ptr [ %17, %16 ], [ %.02941.i, %15 ], [ %43, %42 ], [ %.3.i, %39 ]
  %45 = add nuw nsw i32 %.03239.i, 1
  %exitcond.not.i = icmp eq i32 %45, 15
  br i1 %exitcond.not.i, label %46, label %8, !llvm.loop !4

46:                                               ; preds = %44
  store i8 0, ptr %.4.i, align 1
  br label %47

47:                                               ; preds = %48, %46
  %.029.pn.i = phi ptr [ %.4.i, %46 ], [ %.5.i, %48 ]
  %.5.i = getelementptr i8, ptr %.029.pn.i, i64 -1
  %.not.i = icmp ult ptr %.5.i, %2
  br i1 %.not.i, label %process_netbios_name.exit, label %48

48:                                               ; preds = %47
  %49 = load i8, ptr %.5.i, align 1
  %.not37.i = icmp eq i8 %49, 32
  br i1 %.not37.i, label %47, label %50, !llvm.loop !6

50:                                               ; preds = %48
  store i8 0, ptr %.029.pn.i, align 1
  br label %process_netbios_name.exit

process_netbios_name.exit:                        ; preds = %47, %50
  %51 = zext i8 %7 to i32
  ret i32 %51
}